; Function Attrs: nounwind uwtable
define zeroext range(i8 0, 2) i8 @l_String_anyAux___at_Lean_PrettyPrinter_Formatter_pushToken___spec__1(i32 noundef %0, ptr noundef %1, ptr noundef %2, ptr noundef %3) local_unnamed_addr #0 {
  %5 = ptrtoint ptr %2 to i64
  %6 = and i64 %5, 1
  %.not37 = icmp eq i64 %6, 0
  br i1 %.not37, label %.split.us, label %.split, !prof !12

.split.us:                                        ; preds = %4, %.split.us.backedge
  %.017.us = phi ptr [ %13, %.split.us.backedge ], [ %3, %4 ]
  %7 = ptrtoint ptr %.017.us to i64
  %8 = and i64 %7, 1
  %.not.us = icmp eq i64 %8, 0
  %9 = tail call zeroext i1 @lean_nat_big_lt(ptr noundef %.017.us, ptr noundef %2) #6
  br i1 %.not.us, label %lean_nat_lt.exit.thread35.us, label %lean_nat_lt.exit.us, !prof !12

lean_nat_lt.exit.us:                              ; preds = %.split.us
  br i1 %9, label %10, label %.thread

lean_nat_lt.exit.thread35.us:                     ; preds = %.split.us
  br i1 %9, label %10, label %.split45.us

10:                                               ; preds = %lean_nat_lt.exit.thread35.us, %lean_nat_lt.exit.us
  %11 = tail call i32 @lean_string_utf8_get(ptr noundef %1, ptr noundef %.017.us) #6
  %.not39.us = icmp eq i32 %11, %0
  br i1 %.not39.us, label %.split47.us, label %12

12:                                               ; preds = %10
  %13 = tail call ptr @lean_string_utf8_next(ptr noundef %1, ptr noundef %.017.us) #6
  br i1 %.not.us, label %14, label %.split.us.backedge

14:                                               ; preds = %12
  %15 = load i32, ptr %.017.us, align 4, !tbaa !8
  %16 = icmp sgt i32 %15, 1
  br i1 %16, label %19, label %17, !prof !11

17:                                               ; preds = %14
  %.not.i24.us = icmp eq i32 %15, 0
  br i1 %.not.i24.us, label %.split.us.backedge, label %18

18:                                               ; preds = %17
  tail call void @lean_dec_ref_cold(ptr noundef nonnull %.017.us) #6
  br label %.split.us.backedge

19:                                               ; preds = %14
  %20 = add nsw i32 %15, -1
  store i32 %20, ptr %.017.us, align 4, !tbaa !8
  br label %.split.us.backedge

.split.us.backedge:                               ; preds = %19, %18, %17, %12
  br label %.split.us

.split:                                           ; preds = %4, %.split.backedge
  %.017 = phi ptr [ %33, %.split.backedge ], [ %3, %4 ]
  %21 = ptrtoint ptr %.017 to i64
  %22 = and i64 %21, 1
  %.not = icmp eq i64 %22, 0
  br i1 %.not, label %lean_nat_lt.exit.thread35, label %lean_nat_lt.exit.thread, !prof !12

lean_nat_lt.exit.thread:                          ; preds = %.split
  %.not38 = icmp ult ptr %.017, %2
  br i1 %.not38, label %30, label %.thread

lean_nat_lt.exit.thread35:                        ; preds = %.split
  %23 = tail call zeroext i1 @lean_nat_big_lt(ptr noundef %.017, ptr noundef %2) #6
  br i1 %23, label %30, label %.split45.us

.split45.us:                                      ; preds = %lean_nat_lt.exit.thread35, %lean_nat_lt.exit.thread35.us
  %.us-phi = phi ptr [ %.017.us, %lean_nat_lt.exit.thread35.us ], [ %.017, %lean_nat_lt.exit.thread35 ]
  %24 = load i32, ptr %.us-phi, align 4, !tbaa !8
  %25 = icmp sgt i32 %24, 1
  br i1 %25, label %26, label %28, !prof !11

26:                                               ; preds = %.split45.us
  %27 = add nsw i32 %24, -1
  store i32 %27, ptr %.us-phi, align 4, !tbaa !8
  br label %.thread

28:                                               ; preds = %.split45.us
  %.not.i = icmp eq i32 %24, 0
  br i1 %.not.i, label %.thread, label %29

29:                                               ; preds = %28
  tail call void @lean_dec_ref_cold(ptr noundef nonnull %.us-phi) #6
  br label %.thread

30:                                               ; preds = %lean_nat_lt.exit.thread35, %lean_nat_lt.exit.thread
  %31 = tail call i32 @lean_string_utf8_get(ptr noundef %1, ptr noundef %.017) #6
  %.not39 = icmp eq i32 %31, %0
  br i1 %.not39, label %.split47.us, label %32

32:                                               ; preds = %30
  %33 = tail call ptr @lean_string_utf8_next(ptr noundef %1, ptr noundef %.017) #6
  br i1 %.not, label %34, label %.split.backedge

.split.backedge:                                  ; preds = %32, %37, %39, %40
  br label %.split

34:                                               ; preds = %32
  %35 = load i32, ptr %.017, align 4, !tbaa !8
  %36 = icmp sgt i32 %35, 1
  br i1 %36, label %37, label %39, !prof !11

37:                                               ; preds = %34
  %38 = add nsw i32 %35, -1
  store i32 %38, ptr %.017, align 4, !tbaa !8
  br label %.split.backedge

39:                                               ; preds = %34
  %.not.i24 = icmp eq i32 %35, 0
  br i1 %.not.i24, label %.split.backedge, label %40

40:                                               ; preds = %39
  tail call void @lean_dec_ref_cold(ptr noundef nonnull %.017) #6
  br label %.split.backedge

.split47.us:                                      ; preds = %30, %10
  %.us-phi48 = phi ptr [ %.017.us, %10 ], [ %.017, %30 ]
  %.us-phi49 = phi i1 [ %.not.us, %10 ], [ %.not, %30 ]
  br i1 %.us-phi49, label %41, label %.thread

41:                                               ; preds = %.split47.us
  %42 = load i32, ptr %.us-phi48, align 4, !tbaa !8
  %43 = icmp sgt i32 %42, 1
  br i1 %43, label %44, label %46, !prof !11

44:                                               ; preds = %41
  %45 = add nsw i32 %42, -1
  store i32 %45, ptr %.us-phi48, align 4, !tbaa !8
  br label %.thread

46:                                               ; preds = %41
  %.not.i26 = icmp eq i32 %42, 0
  br i1 %.not.i26, label %.thread, label %47

47:                                               ; preds = %46
  tail call void @lean_dec_ref_cold(ptr noundef nonnull %.us-phi48) #6
  br label %.thread

.thread:                                          ; preds = %lean_nat_lt.exit.thread, %lean_nat_lt.exit.us, %29, %28, %26, %47, %46, %44, %.split47.us
  %.1.ph = phi i8 [ 1, %.split47.us ], [ 1, %44 ], [ 1, %46 ], [ 1, %47 ], [ 0, %26 ], [ 0, %28 ], [ 0, %29 ], [ 0, %lean_nat_lt.exit.us ], [ 0, %lean_nat_lt.exit.thread ]
  ret i8 %.1.ph
}